#include <math.h>
#include <stdio.h>
#include <stdlib.h>
#include <string.h>

// ????.cpp : ??????????????
//



int main()
{
	int n,m,i,j,*p,a[100];
	scanf("%d%d",&n,&m);
	for(i=0;i<=n-1;++i)
	{
		scanf("%d",&a[i]);
	}
	printf("%d",*(a+n-m));
	for(p=a+n-m+1;p<=a+n-1;++p) printf(" %d",*(p));
	for(p=a;p<=a+n-m-1;++p) printf(" %d",*(p));
	printf("\n");
	return 0;
}
