; ModuleID = '52/4341.c'
source_filename = "52/4341.c"
target datalayout = "e-m:e-p270:32:32-p271:32:32-p272:64:64-i64:64-f80:128-n8:16:32:64-S128"
target triple = "x86_64-pc-linux-gnu"

@.str = private unnamed_addr constant [5 x i8] c"%d%d\00", align 1
@.str.1 = private unnamed_addr constant [3 x i8] c"%d\00", align 1
@.str.2 = private unnamed_addr constant [4 x i8] c" %d\00", align 1
@.str.3 = private unnamed_addr constant [2 x i8] c"\0A\00", align 1

; Function Attrs: noinline nounwind uwtable
define dso_local i32 @main() #0 {
  %1 = alloca i32, align 4
  %2 = alloca i32, align 4
  %3 = alloca i32, align 4
  %4 = alloca i32, align 4
  %5 = alloca i32, align 4
  %6 = alloca i32*, align 8
  %7 = alloca [100 x i32], align 16
  store i32 0, i32* %1, align 4
  %8 = call i32 (i8*, ...) @__isoc99_scanf(i8* getelementptr inbounds ([5 x i8], [5 x i8]* @.str, i64 0, i64 0), i32* %2, i32* %3)
  store i32 0, i32* %4, align 4
  br label %9

9:                                                ; preds = %19, %0
  %10 = load i32, i32* %4, align 4
  %11 = load i32, i32* %2, align 4
  %12 = sub nsw i32 %11, 1
  %13 = icmp sle i32 %10, %12
  br i1 %13, label %14, label %22

14:                                               ; preds = %9
  %15 = load i32, i32* %4, align 4
  %16 = sext i32 %15 to i64
  %17 = getelementptr inbounds [100 x i32], [100 x i32]* %7, i64 0, i64 %16
  %18 = call i32 (i8*, ...) @__isoc99_scanf(i8* getelementptr inbounds ([3 x i8], [3 x i8]* @.str.1, i64 0, i64 0), i32* %17)
  br label %19

19:                                               ; preds = %14
  %20 = load i32, i32* %4, align 4
  %21 = add nsw i32 %20, 1
  store i32 %21, i32* %4, align 4
  br label %9

22:                                               ; preds = %9
  %23 = getelementptr inbounds [100 x i32], [100 x i32]* %7, i64 0, i64 0
  %24 = load i32, i32* %2, align 4
  %25 = sext i32 %24 to i64
  %26 = getelementptr inbounds i32, i32* %23, i64 %25
  %27 = load i32, i32* %3, align 4
  %28 = sext i32 %27 to i64
  %29 = sub i64 0, %28
  %30 = getelementptr inbounds i32, i32* %26, i64 %29
  %31 = load i32, i32* %30, align 4
  %32 = call i32 (i8*, ...) @printf(i8* getelementptr inbounds ([3 x i8], [3 x i8]* @.str.1, i64 0, i64 0), i32 %31)
  %33 = getelementptr inbounds [100 x i32], [100 x i32]* %7, i64 0, i64 0
  %34 = load i32, i32* %2, align 4
  %35 = sext i32 %34 to i64
  %36 = getelementptr inbounds i32, i32* %33, i64 %35
  %37 = load i32, i32* %3, align 4
  %38 = sext i32 %37 to i64
  %39 = sub i64 0, %38
  %40 = getelementptr inbounds i32, i32* %36, i64 %39
  %41 = getelementptr inbounds i32, i32* %40, i64 1
  store i32* %41, i32** %6, align 8
  br label %42

42:                                               ; preds = %54, %22
  %43 = load i32*, i32** %6, align 8
  %44 = getelementptr inbounds [100 x i32], [100 x i32]* %7, i64 0, i64 0
  %45 = load i32, i32* %2, align 4
  %46 = sext i32 %45 to i64
  %47 = getelementptr inbounds i32, i32* %44, i64 %46
  %48 = getelementptr inbounds i32, i32* %47, i64 -1
  %49 = icmp ule i32* %43, %48
  br i1 %49, label %50, label %57

50:                                               ; preds = %42
  %51 = load i32*, i32** %6, align 8
  %52 = load i32, i32* %51, align 4
  %53 = call i32 (i8*, ...) @printf(i8* getelementptr inbounds ([4 x i8], [4 x i8]* @.str.2, i64 0, i64 0), i32 %52)
  br label %54

54:                                               ; preds = %50
  %55 = load i32*, i32** %6, align 8
  %56 = getelementptr inbounds i32, i32* %55, i32 1
  store i32* %56, i32** %6, align 8
  br label %42

57:                                               ; preds = %42
  %58 = getelementptr inbounds [100 x i32], [100 x i32]* %7, i64 0, i64 0
  store i32* %58, i32** %6, align 8
  br label %59

59:                                               ; preds = %75, %57
  %60 = load i32*, i32** %6, align 8
  %61 = getelementptr inbounds [100 x i32], [100 x i32]* %7, i64 0, i64 0
  %62 = load i32, i32* %2, align 4
  %63 = sext i32 %62 to i64
  %64 = getelementptr inbounds i32, i32* %61, i64 %63
  %65 = load i32, i32* %3, align 4
  %66 = sext i32 %65 to i64
  %67 = sub i64 0, %66
  %68 = getelementptr inbounds i32, i32* %64, i64 %67
  %69 = getelementptr inbounds i32, i32* %68, i64 -1
  %70 = icmp ule i32* %60, %69
  br i1 %70, label %71, label %78

71:                                               ; preds = %59
  %72 = load i32*, i32** %6, align 8
  %73 = load i32, i32* %72, align 4
  %74 = call i32 (i8*, ...) @printf(i8* getelementptr inbounds ([4 x i8], [4 x i8]* @.str.2, i64 0, i64 0), i32 %73)
  br label %75

75:                                               ; preds = %71
  %76 = load i32*, i32** %6, align 8
  %77 = getelementptr inbounds i32, i32* %76, i32 1
  store i32* %77, i32** %6, align 8
  br label %59

78:                                               ; preds = %59
  %79 = call i32 (i8*, ...) @printf(i8* getelementptr inbounds ([2 x i8], [2 x i8]* @.str.3, i64 0, i64 0))
  ret i32 0
}

declare dso_local i32 @__isoc99_scanf(i8*, ...) #1

declare dso_local i32 @printf(i8*, ...) #1


!llvm.module.flags = !{!0}
!llvm.ident = !{!1}

!0 = !{i32 1, !"wchar_size", i32 4}
!1 = !{!"clang version 10.0.0-4ubuntu1 "}
